; Function Attrs: nounwind uwtable
define hidden range(i32 -4, 1) i32 @mz_inflateInit(ptr noundef %pStream) local_unnamed_addr #4 {
entry:
  %tobool.not.i = icmp eq ptr %pStream, null
  br i1 %tobool.not.i, label %mz_inflateInit2.exit, label %if.end.i

if.end.i:                                         ; preds = %entry
  %data_type.i = getelementptr inbounds nuw i8, ptr %pStream, i64 88
  store i32 0, ptr %data_type.i, align 8
  %adler.i = getelementptr inbounds nuw i8, ptr %pStream, i64 96
  %total_in.i = getelementptr inbounds nuw i8, ptr %pStream, i64 16
  store i64 0, ptr %total_in.i, align 8
  %total_out.i = getelementptr inbounds nuw i8, ptr %pStream, i64 40
  %zalloc.i = getelementptr inbounds nuw i8, ptr %pStream, i64 64
  tail call void @llvm.memset.p0.i64(ptr noundef nonnull align 8 dereferenceable(16) %total_out.i, i8 0, i64 16, i1 false)
  tail call void @llvm.memset.p0.i64(ptr noundef nonnull align 8 dereferenceable(16) %adler.i, i8 0, i64 16, i1 false)
  %0 = load ptr, ptr %zalloc.i, align 8
  %tobool4.not.i = icmp eq ptr %0, null
  br i1 %tobool4.not.i, label %if.then5.i, label %if.end7.i

if.then5.i:                                       ; preds = %if.end.i
  store ptr @def_alloc_func, ptr %zalloc.i, align 8
  br label %if.end7.i

if.end7.i:                                        ; preds = %if.then5.i, %if.end.i
  %1 = phi ptr [ @def_alloc_func, %if.then5.i ], [ %0, %if.end.i ]
  %zfree.i = getelementptr inbounds nuw i8, ptr %pStream, i64 72
  %2 = load ptr, ptr %zfree.i, align 8
  %tobool8.not.i = icmp eq ptr %2, null
  br i1 %tobool8.not.i, label %if.then9.i, label %if.end11.i

if.then9.i:                                       ; preds = %if.end7.i
  store ptr @def_free_func, ptr %zfree.i, align 8
  br label %if.end11.i

if.end11.i:                                       ; preds = %if.then9.i, %if.end7.i
  %opaque.i = getelementptr inbounds nuw i8, ptr %pStream, i64 80
  %3 = load ptr, ptr %opaque.i, align 8
  %call.i = tail call ptr %1(ptr noundef %3, i64 noundef 1, i64 noundef 43792) #30
  %tobool13.not.i = icmp eq ptr %call.i, null
  br i1 %tobool13.not.i, label %mz_inflateInit2.exit, label %if.end15.i

if.end15.i:                                       ; preds = %if.end11.i
  %state.i = getelementptr inbounds nuw i8, ptr %pStream, i64 56
  store ptr %call.i, ptr %state.i, align 8
  store i32 0, ptr %call.i, align 8
  %m_dict_ofs.i = getelementptr inbounds nuw i8, ptr %call.i, i64 11000
  store i32 0, ptr %m_dict_ofs.i, align 8
  %m_dict_avail.i = getelementptr inbounds nuw i8, ptr %call.i, i64 11004
  store i32 0, ptr %m_dict_avail.i, align 4
  %m_last_status.i = getelementptr inbounds nuw i8, ptr %call.i, i64 43788
  store i32 1, ptr %m_last_status.i, align 4
  %m_first_call.i = getelementptr inbounds nuw i8, ptr %call.i, i64 11008
  store i32 1, ptr %m_first_call.i, align 8
  %m_has_flushed.i = getelementptr inbounds nuw i8, ptr %call.i, i64 11012
  store i32 0, ptr %m_has_flushed.i, align 4
  %m_window_bits.i = getelementptr inbounds nuw i8, ptr %call.i, i64 11016
  store i32 15, ptr %m_window_bits.i, align 8
  br label %mz_inflateInit2.exit

mz_inflateInit2.exit:                             ; preds = %entry, %if.end11.i, %if.end15.i
  %retval.0.i = phi i32 [ 0, %if.end15.i ], [ -2, %entry ], [ -4, %if.end11.i ]
  ret i32 %retval.0.i
}